target datalayout = "e-m:e-p270:32:32-p271:32:32-p272:64:64-i64:64-i128:128-f80:128-n8:16:32:64-S128"
target triple = "x86_64-pc-linux-gnu"

; Function Attrs: nounwind uwtable
define float @Emb_ManVecMultiplyOne(ptr noundef %0, ptr noundef %1, i32 noundef %2) #0 {
  %4 = alloca ptr, align 8
  %5 = alloca ptr, align 8
  %6 = alloca i32, align 4
  %7 = alloca float, align 4
  %8 = alloca i32, align 4
  store ptr %0, ptr %4, align 8, !tbaa !107
  store ptr %1, ptr %5, align 8, !tbaa !107
  store i32 %2, ptr %6, align 4, !tbaa !12
  call void @llvm.lifetime.start.p0(i64 4, ptr %7) #12
  store float 0.000000e+00, ptr %7, align 4, !tbaa !110
  call void @llvm.lifetime.start.p0(i64 4, ptr %8) #12
  store i32 0, ptr %8, align 4, !tbaa !12
  br label %9

9:                                                ; preds = %26, %3
  %10 = load i32, ptr %8, align 4, !tbaa !12
  %11 = load i32, ptr %6, align 4, !tbaa !12
  %12 = icmp slt i32 %10, %11
  br i1 %12, label %13, label %29

13:                                               ; preds = %9
  %14 = load ptr, ptr %4, align 8, !tbaa !107
  %15 = load i32, ptr %8, align 4, !tbaa !12
  %16 = sext i32 %15 to i64
  %17 = getelementptr inbounds float, ptr %14, i64 %16
  %18 = load float, ptr %17, align 4, !tbaa !110
  %19 = load ptr, ptr %5, align 8, !tbaa !107
  %20 = load i32, ptr %8, align 4, !tbaa !12
  %21 = sext i32 %20 to i64
  %22 = getelementptr inbounds float, ptr %19, i64 %21
  %23 = load float, ptr %22, align 4, !tbaa !110
  %24 = load float, ptr %7, align 4, !tbaa !110
  %25 = call float @llvm.fmuladd.f32(float %18, float %23, float %24)
  store float %25, ptr %7, align 4, !tbaa !110
  br label %26

26:                                               ; preds = %13
  %27 = load i32, ptr %8, align 4, !tbaa !12
  %28 = add nsw i32 %27, 1
  store i32 %28, ptr %8, align 4, !tbaa !12
  br label %9, !llvm.loop !135

29:                                               ; preds = %9
  %30 = load float, ptr %7, align 4, !tbaa !110
  call void @llvm.lifetime.end.p0(i64 4, ptr %8) #12
  call void @llvm.lifetime.end.p0(i64 4, ptr %7) #12
  ret float %30
}